target datalayout = "e-m:e-p270:32:32-p271:32:32-p272:64:64-i64:64-i128:128-f80:128-n8:16:32:64-S128"
target triple = "x86_64-pc-linux-gnu"

%struct.cmsCIELab = type { double, double, double }
%struct._cmstransform_struct = type { i32, i32, ptr, ptr, ptr, ptr, ptr, %struct._cmsCACHE, ptr, ptr, ptr, ptr, i32, i32, %struct.cmsCIEXYZ, %struct.cmsCIEXYZ, ptr, i32, double, i32, ptr, ptr, ptr, ptr, ptr, i32, i32 }
%struct._cmsCACHE = type { [16 x i16], [16 x i16] }
%struct.cmsCIEXYZ = type { double, double, double }

; Function Attrs: nounwind uwtable
define internal i32 @PixelSize(i32 noundef %0) #0 {
  %2 = alloca i32, align 4
  %3 = alloca i32, align 4
  %4 = alloca i32, align 4
  store i32 %0, ptr %3, align 4
  %5 = load i32, ptr %3, align 4
  %6 = and i32 %5, 7
  store i32 %6, ptr %4, align 4
  %7 = load i32, ptr %4, align 4
  %8 = icmp eq i32 %7, 0
  br i1 %8, label %9, label %10

9:                                                ; preds = %1
  store i32 8, ptr %2, align 4
  br label %12

10:                                               ; preds = %1
  %11 = load i32, ptr %4, align 4
  store i32 %11, ptr %2, align 4
  br label %12

12:                                               ; preds = %10, %9
  %13 = load i32, ptr %2, align 4
  ret i32 %13
}

; Function Attrs: nounwind uwtable
define internal ptr @PackLabFloatFrom16(ptr noundef %0, ptr noundef %1, ptr noundef %2, i32 noundef %3) #0 {
  %5 = alloca ptr, align 8
  %6 = alloca ptr, align 8
  %7 = alloca ptr, align 8
  %8 = alloca ptr, align 8
  %9 = alloca i32, align 4
  %10 = alloca %struct.cmsCIELab, align 8
  %11 = alloca ptr, align 8
  store ptr %0, ptr %6, align 8
  store ptr %1, ptr %7, align 8
  store ptr %2, ptr %8, align 8
  store i32 %3, ptr %9, align 4
  %12 = load ptr, ptr %7, align 8
  call void @cmsLabEncoded2Float(ptr noundef %10, ptr noundef %12)
  %13 = load ptr, ptr %6, align 8
  %14 = getelementptr inbounds %struct._cmstransform_struct, ptr %13, i32 0, i32 1
  %15 = load i32, ptr %14, align 4
  %16 = lshr i32 %15, 12
  %17 = and i32 %16, 1
  %18 = icmp ne i32 %17, 0
  br i1 %18, label %19, label %49

19:                                               ; preds = %4
  %20 = load ptr, ptr %8, align 8
  store ptr %20, ptr %11, align 8
  %21 = load ptr, ptr %6, align 8
  %22 = getelementptr inbounds %struct._cmstransform_struct, ptr %21, i32 0, i32 1
  %23 = load i32, ptr %22, align 4
  %24 = call i32 @PixelSize(i32 noundef %23)
  %25 = load i32, ptr %9, align 4
  %26 = udiv i32 %25, %24
  store i32 %26, ptr %9, align 4
  %27 = getelementptr inbounds %struct.cmsCIELab, ptr %10, i32 0, i32 0
  %28 = load double, ptr %27, align 8
  %29 = fptrunc double %28 to float
  %30 = load ptr, ptr %11, align 8
  %31 = getelementptr inbounds float, ptr %30, i64 0
  store float %29, ptr %31, align 4
  %32 = getelementptr inbounds %struct.cmsCIELab, ptr %10, i32 0, i32 1
  %33 = load double, ptr %32, align 8
  %34 = fptrunc double %33 to float
  %35 = load ptr, ptr %11, align 8
  %36 = load i32, ptr %9, align 4
  %37 = zext i32 %36 to i64
  %38 = getelementptr inbounds float, ptr %35, i64 %37
  store float %34, ptr %38, align 4
  %39 = getelementptr inbounds %struct.cmsCIELab, ptr %10, i32 0, i32 2
  %40 = load double, ptr %39, align 8
  %41 = fptrunc double %40 to float
  %42 = load ptr, ptr %11, align 8
  %43 = load i32, ptr %9, align 4
  %44 = mul i32 %43, 2
  %45 = zext i32 %44 to i64
  %46 = getelementptr inbounds float, ptr %42, i64 %45
  store float %41, ptr %46, align 4
  %47 = load ptr, ptr %8, align 8
  %48 = getelementptr inbounds i8, ptr %47, i64 4
  store ptr %48, ptr %5, align 8
  br label %75

49:                                               ; preds = %4
  %50 = getelementptr inbounds %struct.cmsCIELab, ptr %10, i32 0, i32 0
  %51 = load double, ptr %50, align 8
  %52 = fptrunc double %51 to float
  %53 = load ptr, ptr %8, align 8
  %54 = getelementptr inbounds float, ptr %53, i64 0
  store float %52, ptr %54, align 4
  %55 = getelementptr inbounds %struct.cmsCIELab, ptr %10, i32 0, i32 1
  %56 = load double, ptr %55, align 8
  %57 = fptrunc double %56 to float
  %58 = load ptr, ptr %8, align 8
  %59 = getelementptr inbounds float, ptr %58, i64 1
  store float %57, ptr %59, align 4
  %60 = getelementptr inbounds %struct.cmsCIELab, ptr %10, i32 0, i32 2
  %61 = load double, ptr %60, align 8
  %62 = fptrunc double %61 to float
  %63 = load ptr, ptr %8, align 8
  %64 = getelementptr inbounds float, ptr %63, i64 2
  store float %62, ptr %64, align 4
  %65 = load ptr, ptr %8, align 8
  %66 = load ptr, ptr %6, align 8
  %67 = getelementptr inbounds %struct._cmstransform_struct, ptr %66, i32 0, i32 1
  %68 = load i32, ptr %67, align 4
  %69 = lshr i32 %68, 7
  %70 = and i32 %69, 7
  %71 = add i32 3, %70
  %72 = zext i32 %71 to i64
  %73 = mul i64 %72, 4
  %74 = getelementptr inbounds i8, ptr %65, i64 %73
  store ptr %74, ptr %5, align 8
  br label %75

75:                                               ; preds = %49, %19
  %76 = load ptr, ptr %5, align 8
  ret ptr %76
}