; Function Attrs: nounwind uwtable
define internal nonnull ptr @PackLabFloatFrom16(ptr nocapture noundef readonly %0, ptr noundef %1, ptr noundef writeonly %2, i32 noundef %3) #0 {
  %5 = alloca %struct.cmsCIELab, align 16
  call void @cmsLabEncoded2Float(ptr noundef nonnull %5, ptr noundef %1) #11
  %6 = getelementptr inbounds i8, ptr %0, i64 4
  %7 = load i32, ptr %6, align 4
  %8 = and i32 %7, 4096
  %.not = icmp eq i32 %8, 0
  br i1 %.not, label %27, label %9

9:                                                ; preds = %4
  %10 = and i32 %7, 7
  %11 = icmp eq i32 %10, 0
  %..i = select i1 %11, i32 8, i32 %10
  %12 = udiv i32 %3, %..i
  %13 = load double, ptr %5, align 16
  %14 = fptrunc double %13 to float
  store float %14, ptr %2, align 4
  %15 = getelementptr inbounds i8, ptr %5, i64 8
  %16 = load double, ptr %15, align 8
  %17 = fptrunc double %16 to float
  %18 = zext i32 %12 to i64
  %19 = getelementptr inbounds float, ptr %2, i64 %18
  store float %17, ptr %19, align 4
  %20 = getelementptr inbounds i8, ptr %5, i64 16
  %21 = load double, ptr %20, align 16
  %22 = fptrunc double %21 to float
  %23 = shl i32 %12, 1
  %24 = zext i32 %23 to i64
  %25 = getelementptr inbounds float, ptr %2, i64 %24
  store float %22, ptr %25, align 4
  %26 = getelementptr inbounds i8, ptr %2, i64 4
  br label %40

27:                                               ; preds = %4
  %28 = load <2 x double>, ptr %5, align 16
  %29 = fptrunc <2 x double> %28 to <2 x float>
  store <2 x float> %29, ptr %2, align 4
  %30 = getelementptr inbounds i8, ptr %5, i64 16
  %31 = load double, ptr %30, align 16
  %32 = fptrunc double %31 to float
  %33 = getelementptr inbounds i8, ptr %2, i64 8
  store float %32, ptr %33, align 4
  %34 = load i32, ptr %6, align 4
  %35 = lshr i32 %34, 5
  %36 = and i32 %35, 28
  %37 = zext nneg i32 %36 to i64
  %38 = getelementptr inbounds i8, ptr %2, i64 %37
  %39 = getelementptr inbounds i8, ptr %38, i64 12
  br label %40

40:                                               ; preds = %27, %9
  %.0 = phi ptr [ %26, %9 ], [ %39, %27 ]
  ret ptr %.0
}